target datalayout = "e-m:e-p270:32:32-p271:32:32-p272:64:64-i64:64-i128:128-f80:128-n8:16:32:64-S128"
target triple = "x86_64-pc-linux-gnu"

%struct.__loadu_ps = type { <4 x float> }
%struct.__storeu_ps = type { <4 x float> }

; Function Attrs: alwaysinline nounwind uwtable
define internal void @_mm_storeu_ps(ptr noundef %0, <4 x float> noundef %1) #13 {
  %3 = alloca ptr, align 8
  %4 = alloca <4 x float>, align 16
  store ptr %0, ptr %3, align 8
  store <4 x float> %1, ptr %4, align 16
  %5 = load <4 x float>, ptr %4, align 16
  %6 = load ptr, ptr %3, align 8
  %7 = getelementptr inbounds nuw %struct.__storeu_ps, ptr %6, i32 0, i32 0
  store <4 x float> %5, ptr %7, align 1
  ret void
}

; Function Attrs: alwaysinline nounwind uwtable
define internal <4 x float> @_mm_mul_ps(<4 x float> noundef %0, <4 x float> noundef %1) #13 {
  %3 = alloca <4 x float>, align 16
  %4 = alloca <4 x float>, align 16
  store <4 x float> %0, ptr %3, align 16
  store <4 x float> %1, ptr %4, align 16
  %5 = load <4 x float>, ptr %3, align 16
  %6 = load <4 x float>, ptr %4, align 16
  %7 = fmul <4 x float> %5, %6
  ret <4 x float> %7
}

; Function Attrs: alwaysinline nounwind uwtable
define internal <4 x float> @_mm_or_ps(<4 x float> noundef %0, <4 x float> noundef %1) #13 {
  %3 = alloca <4 x float>, align 16
  %4 = alloca <4 x float>, align 16
  store <4 x float> %0, ptr %3, align 16
  store <4 x float> %1, ptr %4, align 16
  %5 = load <4 x float>, ptr %3, align 16
  %6 = bitcast <4 x float> %5 to <4 x i32>
  %7 = load <4 x float>, ptr %4, align 16
  %8 = bitcast <4 x float> %7 to <4 x i32>
  %9 = or <4 x i32> %6, %8
  %10 = bitcast <4 x i32> %9 to <4 x float>
  ret <4 x float> %10
}

; Function Attrs: alwaysinline nounwind uwtable
define internal <4 x float> @_mm_castsi128_ps(<2 x i64> noundef %0) #13 {
  %2 = alloca <2 x i64>, align 16
  store <2 x i64> %0, ptr %2, align 16
  %3 = load <2 x i64>, ptr %2, align 16
  %4 = bitcast <2 x i64> %3 to <4 x float>
  ret <4 x float> %4
}

; Function Attrs: alwaysinline nounwind uwtable
define internal <2 x i64> @_mm_srli_epi64(<2 x i64> noundef %0, i32 noundef %1) #13 {
  %3 = alloca <2 x i64>, align 16
  %4 = alloca i32, align 4
  store <2 x i64> %0, ptr %3, align 16
  store i32 %1, ptr %4, align 4
  %5 = load <2 x i64>, ptr %3, align 16
  %6 = load i32, ptr %4, align 4
  %7 = call <2 x i64> @llvm.x86.sse2.psrli.q(<2 x i64> %5, i32 %6)
  ret <2 x i64> %7
}

; Function Attrs: alwaysinline nounwind uwtable
define internal <2 x i64> @_mm_castps_si128(<4 x float> noundef %0) #13 {
  %2 = alloca <4 x float>, align 16
  store <4 x float> %0, ptr %2, align 16
  %3 = load <4 x float>, ptr %2, align 16
  %4 = bitcast <4 x float> %3 to <2 x i64>
  ret <2 x i64> %4
}

; Function Attrs: alwaysinline nounwind uwtable
define internal <4 x float> @_mm_loadu_ps(ptr noundef %0) #13 {
  %2 = alloca ptr, align 8
  store ptr %0, ptr %2, align 8
  %3 = load ptr, ptr %2, align 8
  %4 = getelementptr inbounds nuw %struct.__loadu_ps, ptr %3, i32 0, i32 0
  %5 = load <4 x float>, ptr %4, align 1
  ret <4 x float> %5
}

; Function Attrs: nounwind uwtable
define internal void @stbir__simple_alpha_weight_2ch(ptr noundef %0, i32 noundef %1) #12 {
  %3 = alloca ptr, align 8
  %4 = alloca i32, align 4
  %5 = alloca ptr, align 8
  %6 = alloca ptr, align 8
  %7 = alloca <4 x float>, align 16
  %8 = alloca <4 x float>, align 16
  %9 = alloca <4 x float>, align 16
  %10 = alloca <4 x float>, align 16
  %11 = alloca float, align 4
  store ptr %0, ptr %3, align 8
  store i32 %1, ptr %4, align 4
  call void @llvm.lifetime.start.p0(i64 8, ptr %5) #19
  %12 = load ptr, ptr %3, align 8
  store ptr %12, ptr %5, align 8
  call void @llvm.lifetime.start.p0(i64 8, ptr %6) #19
  %13 = load ptr, ptr %3, align 8
  %14 = load i32, ptr %4, align 4
  %15 = sext i32 %14 to i64
  %16 = getelementptr inbounds float, ptr %13, i64 %15
  store ptr %16, ptr %6, align 8
  %17 = load ptr, ptr %5, align 8
  %18 = getelementptr inbounds float, ptr %17, i64 8
  store ptr %18, ptr %5, align 8
  br label %19

19:                                               ; preds = %23, %2
  %20 = load ptr, ptr %5, align 8
  %21 = load ptr, ptr %6, align 8
  %22 = icmp ule ptr %20, %21
  br i1 %22, label %23, label %57

23:                                               ; preds = %19
  call void @llvm.lifetime.start.p0(i64 16, ptr %7) #19
  call void @llvm.lifetime.start.p0(i64 16, ptr %8) #19
  call void @llvm.lifetime.start.p0(i64 16, ptr %9) #19
  call void @llvm.lifetime.start.p0(i64 16, ptr %10) #19
  %24 = load ptr, ptr %5, align 8
  call void asm sideeffect "", "r,~{dirflag},~{fpsr},~{flags}"(ptr %24) #19, !srcloc !352
  %25 = load ptr, ptr %5, align 8
  %26 = getelementptr inbounds float, ptr %25, i64 -8
  %27 = call <4 x float> @_mm_loadu_ps(ptr noundef %26)
  store <4 x float> %27, ptr %7, align 16
  %28 = load ptr, ptr %5, align 8
  %29 = getelementptr inbounds float, ptr %28, i64 -8
  %30 = getelementptr inbounds float, ptr %29, i64 4
  %31 = call <4 x float> @_mm_loadu_ps(ptr noundef %30)
  store <4 x float> %31, ptr %9, align 16
  %32 = load <4 x float>, ptr %7, align 16
  %33 = call <2 x i64> @_mm_castps_si128(<4 x float> noundef %32)
  %34 = call <2 x i64> @_mm_srli_epi64(<2 x i64> noundef %33, i32 noundef 32)
  %35 = call <4 x float> @_mm_castsi128_ps(<2 x i64> noundef %34)
  %36 = call <4 x float> @_mm_or_ps(<4 x float> noundef %35, <4 x float> noundef <float 0.000000e+00, float 1.000000e+00, float 0.000000e+00, float 1.000000e+00>)
  store <4 x float> %36, ptr %8, align 16
  %37 = load <4 x float>, ptr %9, align 16
  %38 = call <2 x i64> @_mm_castps_si128(<4 x float> noundef %37)
  %39 = call <2 x i64> @_mm_srli_epi64(<2 x i64> noundef %38, i32 noundef 32)
  %40 = call <4 x float> @_mm_castsi128_ps(<2 x i64> noundef %39)
  %41 = call <4 x float> @_mm_or_ps(<4 x float> noundef %40, <4 x float> noundef <float 0.000000e+00, float 1.000000e+00, float 0.000000e+00, float 1.000000e+00>)
  store <4 x float> %41, ptr %10, align 16
  %42 = load <4 x float>, ptr %7, align 16
  %43 = load <4 x float>, ptr %8, align 16
  %44 = call <4 x float> @_mm_mul_ps(<4 x float> noundef %42, <4 x float> noundef %43)
  store <4 x float> %44, ptr %7, align 16
  %45 = load <4 x float>, ptr %9, align 16
  %46 = load <4 x float>, ptr %10, align 16
  %47 = call <4 x float> @_mm_mul_ps(<4 x float> noundef %45, <4 x float> noundef %46)
  store <4 x float> %47, ptr %9, align 16
  %48 = load ptr, ptr %5, align 8
  %49 = getelementptr inbounds float, ptr %48, i64 -8
  %50 = load <4 x float>, ptr %7, align 16
  call void @_mm_storeu_ps(ptr noundef %49, <4 x float> noundef %50)
  %51 = load ptr, ptr %5, align 8
  %52 = getelementptr inbounds float, ptr %51, i64 -8
  %53 = getelementptr inbounds float, ptr %52, i64 4
  %54 = load <4 x float>, ptr %9, align 16
  call void @_mm_storeu_ps(ptr noundef %53, <4 x float> noundef %54)
  %55 = load ptr, ptr %5, align 8
  %56 = getelementptr inbounds float, ptr %55, i64 8
  store ptr %56, ptr %5, align 8
  call void @llvm.lifetime.end.p0(i64 16, ptr %10) #19
  call void @llvm.lifetime.end.p0(i64 16, ptr %9) #19
  call void @llvm.lifetime.end.p0(i64 16, ptr %8) #19
  call void @llvm.lifetime.end.p0(i64 16, ptr %7) #19
  br label %19, !llvm.loop !353

57:                                               ; preds = %19
  %58 = load ptr, ptr %5, align 8
  %59 = getelementptr inbounds float, ptr %58, i64 -8
  store ptr %59, ptr %5, align 8
  br label %60

60:                                               ; preds = %64, %57
  %61 = load ptr, ptr %5, align 8
  %62 = load ptr, ptr %6, align 8
  %63 = icmp ult ptr %61, %62
  br i1 %63, label %64, label %76

64:                                               ; preds = %60
  call void @llvm.lifetime.start.p0(i64 4, ptr %11) #19
  %65 = load ptr, ptr %5, align 8
  %66 = getelementptr inbounds float, ptr %65, i64 1
  %67 = load float, ptr %66, align 4
  store float %67, ptr %11, align 4
  %68 = load ptr, ptr %5, align 8
  call void asm sideeffect "", "r,~{dirflag},~{fpsr},~{flags}"(ptr %68) #19, !srcloc !354
  %69 = load float, ptr %11, align 4
  %70 = load ptr, ptr %5, align 8
  %71 = getelementptr inbounds float, ptr %70, i64 0
  %72 = load float, ptr %71, align 4
  %73 = fmul float %72, %69
  store float %73, ptr %71, align 4
  %74 = load ptr, ptr %5, align 8
  %75 = getelementptr inbounds float, ptr %74, i64 2
  store ptr %75, ptr %5, align 8
  call void @llvm.lifetime.end.p0(i64 4, ptr %11) #19
  br label %60, !llvm.loop !355

76:                                               ; preds = %60
  call void @llvm.lifetime.end.p0(i64 8, ptr %6) #19
  call void @llvm.lifetime.end.p0(i64 8, ptr %5) #19
  ret void
}