; Function Attrs: nounwind uwtable
define internal void @stbir__simple_alpha_weight_2ch(ptr noundef %0, i32 noundef %1) #22 {
  %3 = sext i32 %1 to i64
  %.idx = shl nsw i64 %3, 2
  %4 = getelementptr inbounds i8, ptr %0, i64 %.idx
  %.not29 = icmp slt i32 %1, 8
  br i1 %.not29, label %.preheader, label %.lr.ph.preheader

.lr.ph.preheader:                                 ; preds = %2
  %.028 = getelementptr inbounds nuw i8, ptr %0, i64 32
  br label %.lr.ph

.preheader:                                       ; preds = %.lr.ph, %2
  %.pn.lcssa = phi ptr [ %0, %2 ], [ %.031, %.lr.ph ]
  %5 = icmp ult ptr %.pn.lcssa, %4
  br i1 %5, label %.lr.ph33, label %._crit_edge

.lr.ph:                                           ; preds = %.lr.ph.preheader, %.lr.ph
  %.031 = phi ptr [ %.0, %.lr.ph ], [ %.028, %.lr.ph.preheader ]
  %.pn30 = phi ptr [ %.031, %.lr.ph ], [ %0, %.lr.ph.preheader ]
  tail call void asm sideeffect "", "r,~{dirflag},~{fpsr},~{flags}"(ptr nonnull %.031) #54, !srcloc !360
  %6 = load <4 x float>, ptr %.pn30, align 1
  %7 = getelementptr inbounds nuw i8, ptr %.pn30, i64 16
  %8 = load <4 x float>, ptr %7, align 1
  %9 = bitcast <4 x float> %6 to <2 x i64>
  %10 = lshr <2 x i64> %9, splat (i64 32)
  %11 = bitcast <2 x i64> %10 to <4 x i32>
  %12 = or <4 x i32> %11, <i32 0, i32 1065353216, i32 0, i32 1065353216>
  %13 = bitcast <4 x i32> %12 to <4 x float>
  %14 = bitcast <4 x float> %8 to <2 x i64>
  %15 = lshr <2 x i64> %14, splat (i64 32)
  %16 = bitcast <2 x i64> %15 to <4 x i32>
  %17 = or <4 x i32> %16, <i32 0, i32 1065353216, i32 0, i32 1065353216>
  %18 = bitcast <4 x i32> %17 to <4 x float>
  %19 = fmul <4 x float> %6, %13
  %20 = fmul <4 x float> %8, %18
  store <4 x float> %19, ptr %.pn30, align 1
  store <4 x float> %20, ptr %7, align 1
  %.0 = getelementptr inbounds nuw i8, ptr %.031, i64 32
  %.not = icmp ugt ptr %.0, %4
  br i1 %.not, label %.preheader, label %.lr.ph, !llvm.loop !361

.lr.ph33:                                         ; preds = %.preheader, %.lr.ph33
  %.132 = phi ptr [ %25, %.lr.ph33 ], [ %.pn.lcssa, %.preheader ]
  %21 = getelementptr inbounds nuw i8, ptr %.132, i64 4
  %22 = load float, ptr %21, align 4
  tail call void asm sideeffect "", "r,~{dirflag},~{fpsr},~{flags}"(ptr nonnull %.132) #54, !srcloc !362
  %23 = load float, ptr %.132, align 4
  %24 = fmul float %22, %23
  store float %24, ptr %.132, align 4
  %25 = getelementptr inbounds nuw i8, ptr %.132, i64 8
  %26 = icmp ult ptr %25, %4
  br i1 %26, label %.lr.ph33, label %._crit_edge, !llvm.loop !363

._crit_edge:                                      ; preds = %.lr.ph33, %.preheader
  ret void
}